; Function Attrs: mustprogress nofree norecurse nosync nounwind willreturn memory(argmem: read) uwtable
define hidden range(i16 0, 258) i16 @_ZN4cvc58internal6theory5arith8rewriter28tryEvaluateRelationReflexiveENS0_4kind6Kind_tENS0_12NodeTemplateILb0EEES7_(i32 noundef %0, ptr noundef readonly captures(none) %1, ptr noundef readonly captures(none) %2) local_unnamed_addr #6 personality ptr @__gxx_personality_v0 {
  %4 = load ptr, ptr %1, align 8, !tbaa !3
  %5 = load ptr, ptr %2, align 8, !tbaa !3
  %6 = icmp eq ptr %4, %5
  br i1 %6, label %7, label %9

7:                                                ; preds = %3
  switch i32 %0, label %9 [
    i32 75, label %10
    i32 76, label %8
    i32 5, label %8
    i32 6, label %10
    i32 78, label %8
    i32 77, label %10
  ]

8:                                                ; preds = %7, %7, %7
  br label %10

9:                                                ; preds = %7, %3
  br label %10

10:                                               ; preds = %7, %7, %7, %9, %8
  %.sroa.0.0 = phi i16 [ 0, %9 ], [ 1, %8 ], [ 0, %7 ], [ 0, %7 ], [ 0, %7 ]
  %.sroa.7.0 = phi i16 [ 0, %9 ], [ 256, %8 ], [ 256, %7 ], [ 256, %7 ], [ 256, %7 ]
  %.sroa.0.0.insert.insert = or disjoint i16 %.sroa.7.0, %.sroa.0.0
  ret i16 %.sroa.0.0.insert.insert
}